target datalayout = "e-m:e-p270:32:32-p271:32:32-p272:64:64-i64:64-i128:128-f80:128-n8:16:32:64-S128"
target triple = "x86_64-pc-linux-gnu"

%struct.Cache = type { ptr, i32, i32, i32, i32, i64, i64, i64, i64 }
%struct.CacheSet = type { ptr, ptr, i64, ptr }
%struct.CacheBlock = type { i64, i8 }

@policy = global i32 0, align 4
@update_hit = global ptr null, align 8
@update_miss = global ptr null, align 8
@rng = internal global ptr null, align 8
@.str.24 = private unnamed_addr constant [32 x i8] c"../qemu/contrib/plugins/cache.c\00", align 1
@__func__.get_replaced_block = private unnamed_addr constant [19 x i8] c"get_replaced_block\00", align 1

; Function Attrs: nounwind sspstrong uwtable
define internal i32 @fifo_get_first_block(ptr noundef %0, i32 noundef %1) #0 {
  %3 = alloca ptr, align 8
  %4 = alloca i32, align 4
  %5 = alloca ptr, align 8
  store ptr %0, ptr %3, align 8
  store i32 %1, ptr %4, align 4
  call void @llvm.lifetime.start.p0(i64 8, ptr %5) #10
  %6 = load ptr, ptr %3, align 8
  %7 = getelementptr inbounds nuw %struct.Cache, ptr %6, i32 0, i32 0
  %8 = load ptr, ptr %7, align 8
  %9 = load i32, ptr %4, align 4
  %10 = sext i32 %9 to i64
  %11 = getelementptr inbounds %struct.CacheSet, ptr %8, i64 %10
  %12 = getelementptr inbounds nuw %struct.CacheSet, ptr %11, i32 0, i32 3
  %13 = load ptr, ptr %12, align 8
  store ptr %13, ptr %5, align 8
  %14 = load ptr, ptr %5, align 8
  %15 = call ptr @g_queue_pop_tail(ptr noundef %14)
  %16 = ptrtoint ptr %15 to i64
  %17 = trunc i64 %16 to i32
  call void @llvm.lifetime.end.p0(i64 8, ptr %5) #10
  ret i32 %17
}

; Function Attrs: nounwind sspstrong uwtable
define internal i32 @lru_get_lru_block(ptr noundef %0, i32 noundef %1) #0 {
  %3 = alloca ptr, align 8
  %4 = alloca i32, align 4
  %5 = alloca i32, align 4
  %6 = alloca i32, align 4
  %7 = alloca i32, align 4
  store ptr %0, ptr %3, align 8
  store i32 %1, ptr %4, align 4
  call void @llvm.lifetime.start.p0(i64 4, ptr %5) #10
  store i32 0, ptr %5, align 4, !annotation !3
  call void @llvm.lifetime.start.p0(i64 4, ptr %6) #10
  store i32 0, ptr %6, align 4, !annotation !3
  call void @llvm.lifetime.start.p0(i64 4, ptr %7) #10
  store i32 0, ptr %7, align 4, !annotation !3
  %8 = load ptr, ptr %3, align 8
  %9 = getelementptr inbounds nuw %struct.Cache, ptr %8, i32 0, i32 0
  %10 = load ptr, ptr %9, align 8
  %11 = load i32, ptr %4, align 4
  %12 = sext i32 %11 to i64
  %13 = getelementptr inbounds %struct.CacheSet, ptr %10, i64 %12
  %14 = getelementptr inbounds nuw %struct.CacheSet, ptr %13, i32 0, i32 1
  %15 = load ptr, ptr %14, align 8
  %16 = getelementptr inbounds i64, ptr %15, i64 0
  %17 = load i64, ptr %16, align 8
  %18 = trunc i64 %17 to i32
  store i32 %18, ptr %7, align 4
  store i32 0, ptr %6, align 4
  store i32 1, ptr %5, align 4
  br label %19

19:                                               ; preds = %57, %2
  %20 = load i32, ptr %5, align 4
  %21 = load ptr, ptr %3, align 8
  %22 = getelementptr inbounds nuw %struct.Cache, ptr %21, i32 0, i32 3
  %23 = load i32, ptr %22, align 8
  %24 = icmp slt i32 %20, %23
  br i1 %24, label %25, label %60

25:                                               ; preds = %19
  %26 = load ptr, ptr %3, align 8
  %27 = getelementptr inbounds nuw %struct.Cache, ptr %26, i32 0, i32 0
  %28 = load ptr, ptr %27, align 8
  %29 = load i32, ptr %4, align 4
  %30 = sext i32 %29 to i64
  %31 = getelementptr inbounds %struct.CacheSet, ptr %28, i64 %30
  %32 = getelementptr inbounds nuw %struct.CacheSet, ptr %31, i32 0, i32 1
  %33 = load ptr, ptr %32, align 8
  %34 = load i32, ptr %5, align 4
  %35 = sext i32 %34 to i64
  %36 = getelementptr inbounds i64, ptr %33, i64 %35
  %37 = load i64, ptr %36, align 8
  %38 = load i32, ptr %7, align 4
  %39 = sext i32 %38 to i64
  %40 = icmp ult i64 %37, %39
  br i1 %40, label %41, label %56

41:                                               ; preds = %25
  %42 = load ptr, ptr %3, align 8
  %43 = getelementptr inbounds nuw %struct.Cache, ptr %42, i32 0, i32 0
  %44 = load ptr, ptr %43, align 8
  %45 = load i32, ptr %4, align 4
  %46 = sext i32 %45 to i64
  %47 = getelementptr inbounds %struct.CacheSet, ptr %44, i64 %46
  %48 = getelementptr inbounds nuw %struct.CacheSet, ptr %47, i32 0, i32 1
  %49 = load ptr, ptr %48, align 8
  %50 = load i32, ptr %5, align 4
  %51 = sext i32 %50 to i64
  %52 = getelementptr inbounds i64, ptr %49, i64 %51
  %53 = load i64, ptr %52, align 8
  %54 = trunc i64 %53 to i32
  store i32 %54, ptr %7, align 4
  %55 = load i32, ptr %5, align 4
  store i32 %55, ptr %6, align 4
  br label %56

56:                                               ; preds = %41, %25
  br label %57

57:                                               ; preds = %56
  %58 = load i32, ptr %5, align 4
  %59 = add i32 %58, 1
  store i32 %59, ptr %5, align 4
  br label %19, !llvm.loop !18

60:                                               ; preds = %19
  %61 = load i32, ptr %6, align 4
  call void @llvm.lifetime.end.p0(i64 4, ptr %7) #10
  call void @llvm.lifetime.end.p0(i64 4, ptr %6) #10
  call void @llvm.lifetime.end.p0(i64 4, ptr %5) #10
  ret i32 %61
}

; Function Attrs: nounwind sspstrong uwtable
define internal i32 @get_replaced_block(ptr noundef %0, i32 noundef %1) #0 {
  %3 = alloca i32, align 4
  %4 = alloca ptr, align 8
  %5 = alloca i32, align 4
  store ptr %0, ptr %4, align 8
  store i32 %1, ptr %5, align 4
  %6 = load i32, ptr @policy, align 4
  switch i32 %6, label %21 [
    i32 2, label %7
    i32 0, label %13
    i32 1, label %17
  ]

7:                                                ; preds = %2
  %8 = load ptr, ptr @rng, align 8
  %9 = load ptr, ptr %4, align 8
  %10 = getelementptr inbounds nuw %struct.Cache, ptr %9, i32 0, i32 3
  %11 = load i32, ptr %10, align 8
  %12 = call i32 @g_rand_int_range(ptr noundef %8, i32 noundef 0, i32 noundef %11)
  store i32 %12, ptr %3, align 4
  br label %24

13:                                               ; preds = %2
  %14 = load ptr, ptr %4, align 8
  %15 = load i32, ptr %5, align 4
  %16 = call i32 @lru_get_lru_block(ptr noundef %14, i32 noundef %15)
  store i32 %16, ptr %3, align 4
  br label %24

17:                                               ; preds = %2
  %18 = load ptr, ptr %4, align 8
  %19 = load i32, ptr %5, align 4
  %20 = call i32 @fifo_get_first_block(ptr noundef %18, i32 noundef %19)
  store i32 %20, ptr %3, align 4
  br label %24

21:                                               ; preds = %2
  br label %22

22:                                               ; preds = %21
  call void @g_assertion_message_expr(ptr noundef null, ptr noundef @.str.24, i32 noundef 326, ptr noundef @__func__.get_replaced_block, ptr noundef null) #13
  unreachable

23:                                               ; No predecessors!
  br label %24

24:                                               ; preds = %7, %13, %17, %23
  %25 = load i32, ptr %3, align 4
  ret i32 %25
}

; Function Attrs: nounwind sspstrong uwtable
define internal i32 @get_invalid_block(ptr noundef %0, i64 noundef %1) #0 {
  %3 = alloca i32, align 4
  %4 = alloca ptr, align 8
  %5 = alloca i64, align 8
  %6 = alloca i32, align 4
  %7 = alloca i32, align 4
  store ptr %0, ptr %4, align 8
  store i64 %1, ptr %5, align 8
  call void @llvm.lifetime.start.p0(i64 4, ptr %6) #10
  store i32 0, ptr %6, align 4, !annotation !3
  store i32 0, ptr %6, align 4
  br label %8

8:                                                ; preds = %31, %2
  %9 = load i32, ptr %6, align 4
  %10 = load ptr, ptr %4, align 8
  %11 = getelementptr inbounds nuw %struct.Cache, ptr %10, i32 0, i32 3
  %12 = load i32, ptr %11, align 8
  %13 = icmp slt i32 %9, %12
  br i1 %13, label %14, label %34

14:                                               ; preds = %8
  %15 = load ptr, ptr %4, align 8
  %16 = getelementptr inbounds nuw %struct.Cache, ptr %15, i32 0, i32 0
  %17 = load ptr, ptr %16, align 8
  %18 = load i64, ptr %5, align 8
  %19 = getelementptr inbounds nuw %struct.CacheSet, ptr %17, i64 %18
  %20 = getelementptr inbounds nuw %struct.CacheSet, ptr %19, i32 0, i32 0
  %21 = load ptr, ptr %20, align 8
  %22 = load i32, ptr %6, align 4
  %23 = sext i32 %22 to i64
  %24 = getelementptr inbounds %struct.CacheBlock, ptr %21, i64 %23
  %25 = getelementptr inbounds nuw %struct.CacheBlock, ptr %24, i32 0, i32 1
  %26 = load i8, ptr %25, align 8, !range !4, !noundef !5
  %27 = trunc i8 %26 to i1
  br i1 %27, label %30, label %28

28:                                               ; preds = %14
  %29 = load i32, ptr %6, align 4
  store i32 %29, ptr %3, align 4
  store i32 1, ptr %7, align 4
  br label %35

30:                                               ; preds = %14
  br label %31

31:                                               ; preds = %30
  %32 = load i32, ptr %6, align 4
  %33 = add i32 %32, 1
  store i32 %33, ptr %6, align 4
  br label %8, !llvm.loop !17

34:                                               ; preds = %8
  store i32 -1, ptr %3, align 4
  store i32 1, ptr %7, align 4
  br label %35

35:                                               ; preds = %34, %28
  call void @llvm.lifetime.end.p0(i64 4, ptr %6) #10
  %36 = load i32, ptr %3, align 4
  ret i32 %36
}

; Function Attrs: nounwind sspstrong uwtable
define internal i32 @in_cache(ptr noundef %0, i64 noundef %1) #0 {
  %3 = alloca i32, align 4
  %4 = alloca ptr, align 8
  %5 = alloca i64, align 8
  %6 = alloca i32, align 4
  %7 = alloca i64, align 8
  %8 = alloca i64, align 8
  %9 = alloca i32, align 4
  store ptr %0, ptr %4, align 8
  store i64 %1, ptr %5, align 8
  call void @llvm.lifetime.start.p0(i64 4, ptr %6) #10
  store i32 0, ptr %6, align 4, !annotation !3
  call void @llvm.lifetime.start.p0(i64 8, ptr %7) #10
  store i64 0, ptr %7, align 8, !annotation !3
  call void @llvm.lifetime.start.p0(i64 8, ptr %8) #10
  store i64 0, ptr %8, align 8, !annotation !3
  %10 = load ptr, ptr %4, align 8
  %11 = load i64, ptr %5, align 8
  %12 = call i64 @extract_tag(ptr noundef %10, i64 noundef %11)
  store i64 %12, ptr %7, align 8
  %13 = load ptr, ptr %4, align 8
  %14 = load i64, ptr %5, align 8
  %15 = call i64 @extract_set(ptr noundef %13, i64 noundef %14)
  store i64 %15, ptr %8, align 8
  store i32 0, ptr %6, align 4
  br label %16

16:                                               ; preds = %54, %2
  %17 = load i32, ptr %6, align 4
  %18 = load ptr, ptr %4, align 8
  %19 = getelementptr inbounds nuw %struct.Cache, ptr %18, i32 0, i32 3
  %20 = load i32, ptr %19, align 8
  %21 = icmp slt i32 %17, %20
  br i1 %21, label %22, label %57

22:                                               ; preds = %16
  %23 = load ptr, ptr %4, align 8
  %24 = getelementptr inbounds nuw %struct.Cache, ptr %23, i32 0, i32 0
  %25 = load ptr, ptr %24, align 8
  %26 = load i64, ptr %8, align 8
  %27 = getelementptr inbounds nuw %struct.CacheSet, ptr %25, i64 %26
  %28 = getelementptr inbounds nuw %struct.CacheSet, ptr %27, i32 0, i32 0
  %29 = load ptr, ptr %28, align 8
  %30 = load i32, ptr %6, align 4
  %31 = sext i32 %30 to i64
  %32 = getelementptr inbounds %struct.CacheBlock, ptr %29, i64 %31
  %33 = getelementptr inbounds nuw %struct.CacheBlock, ptr %32, i32 0, i32 0
  %34 = load i64, ptr %33, align 8
  %35 = load i64, ptr %7, align 8
  %36 = icmp eq i64 %34, %35
  br i1 %36, label %37, label %53

37:                                               ; preds = %22
  %38 = load ptr, ptr %4, align 8
  %39 = getelementptr inbounds nuw %struct.Cache, ptr %38, i32 0, i32 0
  %40 = load ptr, ptr %39, align 8
  %41 = load i64, ptr %8, align 8
  %42 = getelementptr inbounds nuw %struct.CacheSet, ptr %40, i64 %41
  %43 = getelementptr inbounds nuw %struct.CacheSet, ptr %42, i32 0, i32 0
  %44 = load ptr, ptr %43, align 8
  %45 = load i32, ptr %6, align 4
  %46 = sext i32 %45 to i64
  %47 = getelementptr inbounds %struct.CacheBlock, ptr %44, i64 %46
  %48 = getelementptr inbounds nuw %struct.CacheBlock, ptr %47, i32 0, i32 1
  %49 = load i8, ptr %48, align 8, !range !4, !noundef !5
  %50 = trunc i8 %49 to i1
  br i1 %50, label %51, label %53

51:                                               ; preds = %37
  %52 = load i32, ptr %6, align 4
  store i32 %52, ptr %3, align 4
  store i32 1, ptr %9, align 4
  br label %58

53:                                               ; preds = %37, %22
  br label %54

54:                                               ; preds = %53
  %55 = load i32, ptr %6, align 4
  %56 = add i32 %55, 1
  store i32 %56, ptr %6, align 4
  br label %16, !llvm.loop !16

57:                                               ; preds = %16
  store i32 -1, ptr %3, align 4
  store i32 1, ptr %9, align 4
  br label %58

58:                                               ; preds = %57, %51
  call void @llvm.lifetime.end.p0(i64 8, ptr %8) #10
  call void @llvm.lifetime.end.p0(i64 8, ptr %7) #10
  call void @llvm.lifetime.end.p0(i64 4, ptr %6) #10
  %59 = load i32, ptr %3, align 4
  ret i32 %59
}

; Function Attrs: inlinehint nounwind sspstrong uwtable
define internal i64 @extract_set(ptr noundef %0, i64 noundef %1) #3 {
  %3 = alloca ptr, align 8
  %4 = alloca i64, align 8
  store ptr %0, ptr %3, align 8
  store i64 %1, ptr %4, align 8
  %5 = load i64, ptr %4, align 8
  %6 = load ptr, ptr %3, align 8
  %7 = getelementptr inbounds nuw %struct.Cache, ptr %6, i32 0, i32 5
  %8 = load i64, ptr %7, align 8
  %9 = and i64 %5, %8
  %10 = load ptr, ptr %3, align 8
  %11 = getelementptr inbounds nuw %struct.Cache, ptr %10, i32 0, i32 4
  %12 = load i32, ptr %11, align 4
  %13 = zext i32 %12 to i64
  %14 = lshr i64 %9, %13
  ret i64 %14
}

; Function Attrs: inlinehint nounwind sspstrong uwtable
define internal i64 @extract_tag(ptr noundef %0, i64 noundef %1) #3 {
  %3 = alloca ptr, align 8
  %4 = alloca i64, align 8
  store ptr %0, ptr %3, align 8
  store i64 %1, ptr %4, align 8
  %5 = load i64, ptr %4, align 8
  %6 = load ptr, ptr %3, align 8
  %7 = getelementptr inbounds nuw %struct.Cache, ptr %6, i32 0, i32 6
  %8 = load i64, ptr %7, align 8
  %9 = and i64 %5, %8
  ret i64 %9
}

; Function Attrs: nounwind sspstrong uwtable
define internal zeroext i1 @access_cache(ptr noundef %0, i64 noundef %1) #0 {
  %3 = alloca i1, align 1
  %4 = alloca ptr, align 8
  %5 = alloca i64, align 8
  %6 = alloca i32, align 4
  %7 = alloca i32, align 4
  %8 = alloca i64, align 8
  %9 = alloca i64, align 8
  %10 = alloca i32, align 4
  store ptr %0, ptr %4, align 8
  store i64 %1, ptr %5, align 8
  call void @llvm.lifetime.start.p0(i64 4, ptr %6) #10
  store i32 0, ptr %6, align 4, !annotation !3
  call void @llvm.lifetime.start.p0(i64 4, ptr %7) #10
  store i32 0, ptr %7, align 4, !annotation !3
  call void @llvm.lifetime.start.p0(i64 8, ptr %8) #10
  store i64 0, ptr %8, align 8, !annotation !3
  call void @llvm.lifetime.start.p0(i64 8, ptr %9) #10
  store i64 0, ptr %9, align 8, !annotation !3
  %11 = load ptr, ptr %4, align 8
  %12 = load i64, ptr %5, align 8
  %13 = call i64 @extract_tag(ptr noundef %11, i64 noundef %12)
  store i64 %13, ptr %8, align 8
  %14 = load ptr, ptr %4, align 8
  %15 = load i64, ptr %5, align 8
  %16 = call i64 @extract_set(ptr noundef %14, i64 noundef %15)
  store i64 %16, ptr %9, align 8
  %17 = load ptr, ptr %4, align 8
  %18 = load i64, ptr %5, align 8
  %19 = call i32 @in_cache(ptr noundef %17, i64 noundef %18)
  store i32 %19, ptr %6, align 4
  %20 = load i32, ptr %6, align 4
  %21 = icmp ne i32 %20, -1
  br i1 %21, label %22, label %32

22:                                               ; preds = %2
  %23 = load ptr, ptr @update_hit, align 8
  %24 = icmp ne ptr %23, null
  br i1 %24, label %25, label %31

25:                                               ; preds = %22
  %26 = load ptr, ptr @update_hit, align 8
  %27 = load ptr, ptr %4, align 8
  %28 = load i64, ptr %9, align 8
  %29 = trunc i64 %28 to i32
  %30 = load i32, ptr %6, align 4
  call void %26(ptr noundef %27, i32 noundef %29, i32 noundef %30)
  br label %31

31:                                               ; preds = %25, %22
  store i1 true, ptr %3, align 1
  store i32 1, ptr %10, align 4
  br label %76

32:                                               ; preds = %2
  %33 = load ptr, ptr %4, align 8
  %34 = load i64, ptr %9, align 8
  %35 = call i32 @get_invalid_block(ptr noundef %33, i64 noundef %34)
  store i32 %35, ptr %7, align 4
  %36 = load i32, ptr %7, align 4
  %37 = icmp eq i32 %36, -1
  br i1 %37, label %38, label %43

38:                                               ; preds = %32
  %39 = load ptr, ptr %4, align 8
  %40 = load i64, ptr %9, align 8
  %41 = trunc i64 %40 to i32
  %42 = call i32 @get_replaced_block(ptr noundef %39, i32 noundef %41)
  store i32 %42, ptr %7, align 4
  br label %43

43:                                               ; preds = %38, %32
  %44 = load ptr, ptr @update_miss, align 8
  %45 = icmp ne ptr %44, null
  br i1 %45, label %46, label %52

46:                                               ; preds = %43
  %47 = load ptr, ptr @update_miss, align 8
  %48 = load ptr, ptr %4, align 8
  %49 = load i64, ptr %9, align 8
  %50 = trunc i64 %49 to i32
  %51 = load i32, ptr %7, align 4
  call void %47(ptr noundef %48, i32 noundef %50, i32 noundef %51)
  br label %52

52:                                               ; preds = %46, %43
  %53 = load i64, ptr %8, align 8
  %54 = load ptr, ptr %4, align 8
  %55 = getelementptr inbounds nuw %struct.Cache, ptr %54, i32 0, i32 0
  %56 = load ptr, ptr %55, align 8
  %57 = load i64, ptr %9, align 8
  %58 = getelementptr inbounds nuw %struct.CacheSet, ptr %56, i64 %57
  %59 = getelementptr inbounds nuw %struct.CacheSet, ptr %58, i32 0, i32 0
  %60 = load ptr, ptr %59, align 8
  %61 = load i32, ptr %7, align 4
  %62 = sext i32 %61 to i64
  %63 = getelementptr inbounds %struct.CacheBlock, ptr %60, i64 %62
  %64 = getelementptr inbounds nuw %struct.CacheBlock, ptr %63, i32 0, i32 0
  store i64 %53, ptr %64, align 8
  %65 = load ptr, ptr %4, align 8
  %66 = getelementptr inbounds nuw %struct.Cache, ptr %65, i32 0, i32 0
  %67 = load ptr, ptr %66, align 8
  %68 = load i64, ptr %9, align 8
  %69 = getelementptr inbounds nuw %struct.CacheSet, ptr %67, i64 %68
  %70 = getelementptr inbounds nuw %struct.CacheSet, ptr %69, i32 0, i32 0
  %71 = load ptr, ptr %70, align 8
  %72 = load i32, ptr %7, align 4
  %73 = sext i32 %72 to i64
  %74 = getelementptr inbounds %struct.CacheBlock, ptr %71, i64 %73
  %75 = getelementptr inbounds nuw %struct.CacheBlock, ptr %74, i32 0, i32 1
  store i8 1, ptr %75, align 8
  store i1 false, ptr %3, align 1
  store i32 1, ptr %10, align 4
  br label %76

76:                                               ; preds = %52, %31
  call void @llvm.lifetime.end.p0(i64 8, ptr %9) #10
  call void @llvm.lifetime.end.p0(i64 8, ptr %8) #10
  call void @llvm.lifetime.end.p0(i64 4, ptr %7) #10
  call void @llvm.lifetime.end.p0(i64 4, ptr %6) #10
  %77 = load i1, ptr %3, align 1
  ret i1 %77
}