; Function Attrs: nounwind sspstrong uwtable
define internal fastcc noundef zeroext i1 @access_cache(ptr noundef %0, i64 noundef %1) unnamed_addr #0 {
  %3 = getelementptr i8, ptr %0, i64 32
  %.val = load i64, ptr %3, align 8
  %4 = and i64 %.val, %1
  %5 = getelementptr i8, ptr %0, i64 20
  %.val32 = load i32, ptr %5, align 4
  %6 = getelementptr i8, ptr %0, i64 24
  %.val33 = load i64, ptr %6, align 8
  %7 = and i64 %.val33, %1
  %8 = zext nneg i32 %.val32 to i64
  %9 = lshr i64 %7, %8
  %10 = getelementptr inbounds nuw i8, ptr %0, i64 16
  %11 = load i32, ptr %10, align 8
  %12 = icmp sgt i32 %11, 0
  br i1 %12, label %.lr.ph.i, label %get_invalid_block.exit.thread

.lr.ph.i:                                         ; preds = %2
  %13 = load ptr, ptr %0, align 8
  %14 = getelementptr inbounds nuw %struct.CacheSet, ptr %13, i64 %9
  %15 = load ptr, ptr %14, align 8
  %wide.trip.count.i = zext nneg i32 %11 to i64
  br label %16

16:                                               ; preds = %24, %.lr.ph.i
  %indvars.iv.i = phi i64 [ 0, %.lr.ph.i ], [ %indvars.iv.next.i, %24 ]
  %17 = getelementptr inbounds nuw %struct.CacheBlock, ptr %15, i64 %indvars.iv.i
  %18 = load i64, ptr %17, align 8
  %19 = icmp eq i64 %18, %4
  br i1 %19, label %20, label %24

20:                                               ; preds = %16
  %21 = getelementptr inbounds nuw i8, ptr %17, i64 8
  %22 = load i8, ptr %21, align 8, !range !3, !noundef !4
  %23 = trunc nuw i8 %22 to i1
  br i1 %23, label %in_cache.exit, label %24

24:                                               ; preds = %20, %16
  %indvars.iv.next.i = add nuw nsw i64 %indvars.iv.i, 1
  %exitcond.not.i = icmp eq i64 %indvars.iv.next.i, %wide.trip.count.i
  br i1 %exitcond.not.i, label %.lr.ph.i34, label %16, !llvm.loop !23

in_cache.exit:                                    ; preds = %20
  %25 = load ptr, ptr @update_hit, align 8
  %.not31 = icmp eq ptr %25, null
  br i1 %.not31, label %71, label %26

26:                                               ; preds = %in_cache.exit
  %27 = trunc nuw nsw i64 %indvars.iv.i to i32
  %28 = trunc i64 %9 to i32
  tail call void %25(ptr noundef nonnull %0, i32 noundef %28, i32 noundef %27) #12
  br label %71

.lr.ph.i34:                                       ; preds = %24, %32
  %indvars.iv.i36 = phi i64 [ %indvars.iv.next.i37, %32 ], [ 0, %24 ]
  %29 = getelementptr inbounds nuw %struct.CacheBlock, ptr %15, i64 %indvars.iv.i36, i32 1
  %30 = load i8, ptr %29, align 8, !range !3, !noundef !4
  %31 = trunc nuw i8 %30 to i1
  br i1 %31, label %32, label %get_invalid_block.exit

32:                                               ; preds = %.lr.ph.i34
  %indvars.iv.next.i37 = add nuw nsw i64 %indvars.iv.i36, 1
  %exitcond.not.i38 = icmp eq i64 %indvars.iv.next.i37, %wide.trip.count.i
  br i1 %exitcond.not.i38, label %get_invalid_block.exit.thread, label %.lr.ph.i34, !llvm.loop !24

get_invalid_block.exit:                           ; preds = %.lr.ph.i34
  %33 = trunc nuw nsw i64 %indvars.iv.i36 to i32
  br label %get_replaced_block.exit

get_invalid_block.exit.thread:                    ; preds = %32, %2
  %34 = load i32, ptr @policy, align 4
  switch i32 %34, label %57 [
    i32 2, label %35
    i32 0, label %38
    i32 1, label %50
  ]

35:                                               ; preds = %get_invalid_block.exit.thread
  %36 = load ptr, ptr @rng, align 8
  %37 = tail call i32 @g_rand_int_range(ptr noundef %36, i32 noundef 0, i32 noundef %11) #12
  br label %get_replaced_block.exit

38:                                               ; preds = %get_invalid_block.exit.thread
  %39 = load ptr, ptr %0, align 8
  %sext49 = shl i64 %9, 32
  %40 = ashr exact i64 %sext49, 32
  %41 = getelementptr inbounds %struct.CacheSet, ptr %39, i64 %40, i32 1
  %42 = load ptr, ptr %41, align 8
  %43 = icmp sgt i32 %11, 1
  br i1 %43, label %.lr.ph.preheader.i.i, label %get_replaced_block.exit

.lr.ph.preheader.i.i:                             ; preds = %38
  %44 = load i64, ptr %42, align 8
  %wide.trip.count.i.i = zext nneg i32 %11 to i64
  br label %.lr.ph.i.i

.lr.ph.i.i:                                       ; preds = %.lr.ph.i.i, %.lr.ph.preheader.i.i
  %indvars.iv.i.i = phi i64 [ 1, %.lr.ph.preheader.i.i ], [ %indvars.iv.next.i.i, %.lr.ph.i.i ]
  %.021.i.i = phi i64 [ %44, %.lr.ph.preheader.i.i ], [ %spec.select1718.i.i, %.lr.ph.i.i ]
  %.01320.i.i = phi i32 [ 0, %.lr.ph.preheader.i.i ], [ %spec.select.i.i, %.lr.ph.i.i ]
  %45 = getelementptr inbounds nuw i64, ptr %42, i64 %indvars.iv.i.i
  %46 = load i64, ptr %45, align 8
  %sext.i.i = shl i64 %.021.i.i, 32
  %47 = ashr exact i64 %sext.i.i, 32
  %48 = icmp ult i64 %46, %47
  %49 = trunc nuw nsw i64 %indvars.iv.i.i to i32
  %spec.select.i.i = select i1 %48, i32 %49, i32 %.01320.i.i
  %spec.select1718.i.i = tail call i64 @llvm.umin.i64(i64 %46, i64 %47)
  %indvars.iv.next.i.i = add nuw nsw i64 %indvars.iv.i.i, 1
  %exitcond.not.i.i = icmp eq i64 %indvars.iv.next.i.i, %wide.trip.count.i.i
  br i1 %exitcond.not.i.i, label %get_replaced_block.exit, label %.lr.ph.i.i, !llvm.loop !25

50:                                               ; preds = %get_invalid_block.exit.thread
  %.val.i39 = load ptr, ptr %0, align 8
  %sext = shl i64 %9, 32
  %51 = ashr exact i64 %sext, 32
  %52 = getelementptr inbounds %struct.CacheSet, ptr %.val.i39, i64 %51, i32 3
  %53 = load ptr, ptr %52, align 8
  %54 = tail call ptr @g_queue_pop_tail(ptr noundef %53) #12
  %55 = ptrtoint ptr %54 to i64
  %56 = trunc i64 %55 to i32
  br label %get_replaced_block.exit

57:                                               ; preds = %get_invalid_block.exit.thread
  tail call void @g_assertion_message_expr(ptr noundef null, ptr noundef nonnull @.str.24, i32 noundef 326, ptr noundef nonnull @__func__.get_replaced_block, ptr noundef null) #14
  unreachable

get_replaced_block.exit:                          ; preds = %.lr.ph.i.i, %get_invalid_block.exit, %50, %38, %35
  %.0 = phi i32 [ %33, %get_invalid_block.exit ], [ %56, %50 ], [ %37, %35 ], [ 0, %38 ], [ %spec.select.i.i, %.lr.ph.i.i ]
  %58 = load ptr, ptr @update_miss, align 8
  %.not30 = icmp eq ptr %58, null
  br i1 %.not30, label %61, label %59

59:                                               ; preds = %get_replaced_block.exit
  %60 = trunc i64 %9 to i32
  tail call void %58(ptr noundef %0, i32 noundef %60, i32 noundef %.0) #12
  br label %61

61:                                               ; preds = %59, %get_replaced_block.exit
  %62 = load ptr, ptr %0, align 8
  %63 = getelementptr inbounds nuw %struct.CacheSet, ptr %62, i64 %9
  %64 = load ptr, ptr %63, align 8
  %65 = sext i32 %.0 to i64
  %66 = getelementptr inbounds %struct.CacheBlock, ptr %64, i64 %65
  store i64 %4, ptr %66, align 8
  %67 = load ptr, ptr %0, align 8
  %68 = getelementptr inbounds nuw %struct.CacheSet, ptr %67, i64 %9
  %69 = load ptr, ptr %68, align 8
  %70 = getelementptr inbounds %struct.CacheBlock, ptr %69, i64 %65, i32 1
  store i8 1, ptr %70, align 8
  br label %71

71:                                               ; preds = %in_cache.exit, %26, %61
  %.not42 = phi i1 [ true, %in_cache.exit ], [ true, %26 ], [ false, %61 ]
  ret i1 %.not42
}